; ModuleID = '57/2599.c'
source_filename = "57/2599.c"
target datalayout = "e-m:e-p270:32:32-p271:32:32-p272:64:64-i64:64-f80:128-n8:16:32:64-S128"
target triple = "x86_64-pc-linux-gnu"

@.str = private unnamed_addr constant [3 x i8] c"%d\00", align 1
@.str.1 = private unnamed_addr constant [3 x i8] c"%s\00", align 1

; Function Attrs: noinline nounwind uwtable
define dso_local i32 @main() #0 {
  %1 = alloca i32, align 4
  %2 = alloca i32, align 4
  %3 = alloca i32, align 4
  %4 = alloca i32, align 4
  %5 = alloca i32, align 4
  %6 = alloca [50 x [20 x i8]], align 16
  %7 = alloca [50 x i32], align 16
  store i32 0, i32* %1, align 4
  %8 = call i32 (i8*, ...) @__isoc99_scanf(i8* getelementptr inbounds ([3 x i8], [3 x i8]* @.str, i64 0, i64 0), i32* %2)
  %9 = bitcast [50 x [20 x i8]]* %6 to i8*
  call void @llvm.memset.p0i8.i64(i8* align 16 %9, i8 0, i64 1000, i1 false)
  store i32 0, i32* %3, align 4
  br label %10

10:                                               ; preds = %29, %0
  %11 = load i32, i32* %3, align 4
  %12 = load i32, i32* %2, align 4
  %13 = icmp slt i32 %11, %12
  br i1 %13, label %14, label %32

14:                                               ; preds = %10
  %15 = load i32, i32* %3, align 4
  %16 = sext i32 %15 to i64
  %17 = getelementptr inbounds [50 x [20 x i8]], [50 x [20 x i8]]* %6, i64 0, i64 %16
  %18 = getelementptr inbounds [20 x i8], [20 x i8]* %17, i64 0, i64 0
  %19 = call i32 (i8*, ...) @__isoc99_scanf(i8* getelementptr inbounds ([3 x i8], [3 x i8]* @.str.1, i64 0, i64 0), i8* %18)
  %20 = load i32, i32* %3, align 4
  %21 = sext i32 %20 to i64
  %22 = getelementptr inbounds [50 x [20 x i8]], [50 x [20 x i8]]* %6, i64 0, i64 %21
  %23 = getelementptr inbounds [20 x i8], [20 x i8]* %22, i64 0, i64 0
  %24 = call i64 @strlen(i8* %23) #4
  %25 = trunc i64 %24 to i32
  %26 = load i32, i32* %3, align 4
  %27 = sext i32 %26 to i64
  %28 = getelementptr inbounds [50 x i32], [50 x i32]* %7, i64 0, i64 %27
  store i32 %25, i32* %28, align 4
  br label %29

29:                                               ; preds = %14
  %30 = load i32, i32* %3, align 4
  %31 = add nsw i32 %30, 1
  store i32 %31, i32* %3, align 4
  br label %10

32:                                               ; preds = %10
  store i32 0, i32* %3, align 4
  br label %33

33:                                               ; preds = %168, %32
  %34 = load i32, i32* %3, align 4
  %35 = load i32, i32* %2, align 4
  %36 = icmp slt i32 %34, %35
  br i1 %36, label %37, label %171

37:                                               ; preds = %33
  %38 = load i32, i32* %3, align 4
  %39 = sext i32 %38 to i64
  %40 = getelementptr inbounds [50 x i32], [50 x i32]* %7, i64 0, i64 %39
  %41 = load i32, i32* %40, align 4
  %42 = sub nsw i32 %41, 2
  store i32 %42, i32* %5, align 4
  %43 = load i32, i32* %3, align 4
  %44 = sext i32 %43 to i64
  %45 = getelementptr inbounds [50 x [20 x i8]], [50 x [20 x i8]]* %6, i64 0, i64 %44
  %46 = load i32, i32* %5, align 4
  %47 = sext i32 %46 to i64
  %48 = getelementptr inbounds [20 x i8], [20 x i8]* %45, i64 0, i64 %47
  %49 = load i8, i8* %48, align 1
  %50 = sext i8 %49 to i32
  %51 = icmp eq i32 %50, 101
  br i1 %51, label %52, label %77

52:                                               ; preds = %37
  %53 = load i32, i32* %3, align 4
  %54 = sext i32 %53 to i64
  %55 = getelementptr inbounds [50 x [20 x i8]], [50 x [20 x i8]]* %6, i64 0, i64 %54
  %56 = load i32, i32* %5, align 4
  %57 = add nsw i32 %56, 1
  %58 = sext i32 %57 to i64
  %59 = getelementptr inbounds [20 x i8], [20 x i8]* %55, i64 0, i64 %58
  %60 = load i8, i8* %59, align 1
  %61 = sext i8 %60 to i32
  %62 = icmp eq i32 %61, 114
  br i1 %62, label %63, label %77

63:                                               ; preds = %52
  %64 = load i32, i32* %3, align 4
  %65 = sext i32 %64 to i64
  %66 = getelementptr inbounds [50 x [20 x i8]], [50 x [20 x i8]]* %6, i64 0, i64 %65
  %67 = load i32, i32* %5, align 4
  %68 = sext i32 %67 to i64
  %69 = getelementptr inbounds [20 x i8], [20 x i8]* %66, i64 0, i64 %68
  store i8 0, i8* %69, align 1
  %70 = load i32, i32* %3, align 4
  %71 = sext i32 %70 to i64
  %72 = getelementptr inbounds [50 x [20 x i8]], [50 x [20 x i8]]* %6, i64 0, i64 %71
  %73 = load i32, i32* %5, align 4
  %74 = add nsw i32 %73, 1
  %75 = sext i32 %74 to i64
  %76 = getelementptr inbounds [20 x i8], [20 x i8]* %72, i64 0, i64 %75
  store i8 0, i8* %76, align 1
  br label %168

77:                                               ; preds = %52, %37
  %78 = load i32, i32* %3, align 4
  %79 = sext i32 %78 to i64
  %80 = getelementptr inbounds [50 x [20 x i8]], [50 x [20 x i8]]* %6, i64 0, i64 %79
  %81 = load i32, i32* %5, align 4
  %82 = sext i32 %81 to i64
  %83 = getelementptr inbounds [20 x i8], [20 x i8]* %80, i64 0, i64 %82
  %84 = load i8, i8* %83, align 1
  %85 = sext i8 %84 to i32
  %86 = icmp eq i32 %85, 108
  br i1 %86, label %87, label %112

87:                                               ; preds = %77
  %88 = load i32, i32* %3, align 4
  %89 = sext i32 %88 to i64
  %90 = getelementptr inbounds [50 x [20 x i8]], [50 x [20 x i8]]* %6, i64 0, i64 %89
  %91 = load i32, i32* %5, align 4
  %92 = add nsw i32 %91, 1
  %93 = sext i32 %92 to i64
  %94 = getelementptr inbounds [20 x i8], [20 x i8]* %90, i64 0, i64 %93
  %95 = load i8, i8* %94, align 1
  %96 = sext i8 %95 to i32
  %97 = icmp eq i32 %96, 121
  br i1 %97, label %98, label %112

98:                                               ; preds = %87
  %99 = load i32, i32* %3, align 4
  %100 = sext i32 %99 to i64
  %101 = getelementptr inbounds [50 x [20 x i8]], [50 x [20 x i8]]* %6, i64 0, i64 %100
  %102 = load i32, i32* %5, align 4
  %103 = sext i32 %102 to i64
  %104 = getelementptr inbounds [20 x i8], [20 x i8]* %101, i64 0, i64 %103
  store i8 0, i8* %104, align 1
  %105 = load i32, i32* %3, align 4
  %106 = sext i32 %105 to i64
  %107 = getelementptr inbounds [50 x [20 x i8]], [50 x [20 x i8]]* %6, i64 0, i64 %106
  %108 = load i32, i32* %5, align 4
  %109 = add nsw i32 %108, 1
  %110 = sext i32 %109 to i64
  %111 = getelementptr inbounds [20 x i8], [20 x i8]* %107, i64 0, i64 %110
  store i8 0, i8* %111, align 1
  br label %168

112:                                              ; preds = %87, %77
  %113 = load i32, i32* %3, align 4
  %114 = sext i32 %113 to i64
  %115 = getelementptr inbounds [50 x [20 x i8]], [50 x [20 x i8]]* %6, i64 0, i64 %114
  %116 = load i32, i32* %5, align 4
  %117 = sub nsw i32 %116, 1
  %118 = sext i32 %117 to i64
  %119 = getelementptr inbounds [20 x i8], [20 x i8]* %115, i64 0, i64 %118
  %120 = load i8, i8* %119, align 1
  %121 = sext i8 %120 to i32
  %122 = icmp eq i32 %121, 105
  br i1 %122, label %123, label %165

123:                                              ; preds = %112
  %124 = load i32, i32* %3, align 4
  %125 = sext i32 %124 to i64
  %126 = getelementptr inbounds [50 x [20 x i8]], [50 x [20 x i8]]* %6, i64 0, i64 %125
  %127 = load i32, i32* %5, align 4
  %128 = sext i32 %127 to i64
  %129 = getelementptr inbounds [20 x i8], [20 x i8]* %126, i64 0, i64 %128
  %130 = load i8, i8* %129, align 1
  %131 = sext i8 %130 to i32
  %132 = icmp eq i32 %131, 110
  br i1 %132, label %133, label %165

133:                                              ; preds = %123
  %134 = load i32, i32* %3, align 4
  %135 = sext i32 %134 to i64
  %136 = getelementptr inbounds [50 x [20 x i8]], [50 x [20 x i8]]* %6, i64 0, i64 %135
  %137 = load i32, i32* %5, align 4
  %138 = add nsw i32 %137, 1
  %139 = sext i32 %138 to i64
  %140 = getelementptr inbounds [20 x i8], [20 x i8]* %136, i64 0, i64 %139
  %141 = load i8, i8* %140, align 1
  %142 = sext i8 %141 to i32
  %143 = icmp eq i32 %142, 103
  br i1 %143, label %144, label %165

144:                                              ; preds = %133
  %145 = load i32, i32* %3, align 4
  %146 = sext i32 %145 to i64
  %147 = getelementptr inbounds [50 x [20 x i8]], [50 x [20 x i8]]* %6, i64 0, i64 %146
  %148 = load i32, i32* %5, align 4
  %149 = sub nsw i32 %148, 1
  %150 = sext i32 %149 to i64
  %151 = getelementptr inbounds [20 x i8], [20 x i8]* %147, i64 0, i64 %150
  store i8 0, i8* %151, align 1
  %152 = load i32, i32* %3, align 4
  %153 = sext i32 %152 to i64
  %154 = getelementptr inbounds [50 x [20 x i8]], [50 x [20 x i8]]* %6, i64 0, i64 %153
  %155 = load i32, i32* %5, align 4
  %156 = sext i32 %155 to i64
  %157 = getelementptr inbounds [20 x i8], [20 x i8]* %154, i64 0, i64 %156
  store i8 0, i8* %157, align 1
  %158 = load i32, i32* %3, align 4
  %159 = sext i32 %158 to i64
  %160 = getelementptr inbounds [50 x [20 x i8]], [50 x [20 x i8]]* %6, i64 0, i64 %159
  %161 = load i32, i32* %5, align 4
  %162 = add nsw i32 %161, 1
  %163 = sext i32 %162 to i64
  %164 = getelementptr inbounds [20 x i8], [20 x i8]* %160, i64 0, i64 %163
  store i8 0, i8* %164, align 1
  br label %165

165:                                              ; preds = %144, %133, %123, %112
  br label %166

166:                                              ; preds = %165
  br label %167

167:                                              ; preds = %166
  br label %168

168:                                              ; preds = %167, %98, %63
  %169 = load i32, i32* %3, align 4
  %170 = add nsw i32 %169, 1
  store i32 %170, i32* %3, align 4
  br label %33

171:                                              ; preds = %33
  store i32 0, i32* %3, align 4
  br label %172

172:                                              ; preds = %182, %171
  %173 = load i32, i32* %3, align 4
  %174 = load i32, i32* %2, align 4
  %175 = icmp slt i32 %173, %174
  br i1 %175, label %176, label %185

176:                                              ; preds = %172
  %177 = load i32, i32* %3, align 4
  %178 = sext i32 %177 to i64
  %179 = getelementptr inbounds [50 x [20 x i8]], [50 x [20 x i8]]* %6, i64 0, i64 %178
  %180 = getelementptr inbounds [20 x i8], [20 x i8]* %179, i64 0, i64 0
  %181 = call i32 @puts(i8* %180)
  br label %182

182:                                              ; preds = %176
  %183 = load i32, i32* %3, align 4
  %184 = add nsw i32 %183, 1
  store i32 %184, i32* %3, align 4
  br label %172

185:                                              ; preds = %172
  ret i32 0
}

declare dso_local i32 @__isoc99_scanf(i8*, ...) #1

; Function Attrs: argmemonly nounwind willreturn
declare void @llvm.memset.p0i8.i64(i8* nocapture writeonly, i8, i64, i1 immarg) #2

; Function Attrs: nounwind readonly
declare dso_local i64 @strlen(i8*) #3

declare dso_local i32 @puts(i8*) #1


!llvm.module.flags = !{!0}
!llvm.ident = !{!1}

!0 = !{i32 1, !"wchar_size", i32 4}
!1 = !{!"clang version 10.0.0-4ubuntu1 "}
