; ModuleID = 'source-C-CXX/56/2599.c'
source_filename = "source-C-CXX/56/2599.c"
target datalayout = "e-m:e-p270:32:32-p271:32:32-p272:64:64-i64:64-f80:128-n8:16:32:64-S128"
target triple = "x86_64-pc-linux-gnu"

@.str = private unnamed_addr constant [3 x i8] c"%d\00", align 1
@.str.1 = private unnamed_addr constant [3 x i8] c"%s\00", align 1

; Function Attrs: nofree nounwind sspstrong uwtable
define dso_local i32 @main() local_unnamed_addr #0 {
  %1 = alloca i32, align 4
  %2 = alloca [50 x [20 x i8]], align 16
  %3 = alloca [50 x i32], align 16
  %4 = bitcast i32* %1 to i8*
  call void @llvm.lifetime.start.p0i8(i64 4, i8* nonnull %4) #5
  %5 = call i32 (i8*, ...) @__isoc99_scanf(i8* getelementptr inbounds ([3 x i8], [3 x i8]* @.str, i64 0, i64 0), i32* nonnull %1)
  %6 = getelementptr inbounds [50 x [20 x i8]], [50 x [20 x i8]]* %2, i64 0, i64 0, i64 0
  call void @llvm.lifetime.start.p0i8(i64 1000, i8* nonnull %6) #5
  call void @llvm.memset.p0i8.i64(i8* noundef nonnull align 16 dereferenceable(1000) %6, i8 0, i64 1000, i1 false)
  %7 = bitcast [50 x i32]* %3 to i8*
  call void @llvm.lifetime.start.p0i8(i64 200, i8* nonnull %7) #5
  %8 = load i32, i32* %1, align 4, !tbaa !5
  %9 = icmp sgt i32 %8, 0
  br i1 %9, label %14, label %74

10:                                               ; preds = %14
  %11 = icmp sgt i32 %22, 0
  br i1 %11, label %12, label %74

12:                                               ; preds = %10
  %13 = zext i32 %22 to i64
  br label %26

14:                                               ; preds = %0, %14
  %15 = phi i64 [ %21, %14 ], [ 0, %0 ]
  %16 = getelementptr inbounds [50 x [20 x i8]], [50 x [20 x i8]]* %2, i64 0, i64 %15, i64 0
  %17 = call i32 (i8*, ...) @__isoc99_scanf(i8* getelementptr inbounds ([3 x i8], [3 x i8]* @.str.1, i64 0, i64 0), i8* nonnull %16)
  %18 = call i64 @strlen(i8* noundef nonnull %16) #6
  %19 = trunc i64 %18 to i32
  %20 = getelementptr inbounds [50 x i32], [50 x i32]* %3, i64 0, i64 %15
  store i32 %19, i32* %20, align 4, !tbaa !5
  %21 = add nuw nsw i64 %15, 1
  %22 = load i32, i32* %1, align 4, !tbaa !5
  %23 = sext i32 %22 to i64
  %24 = icmp slt i64 %21, %23
  br i1 %24, label %14, label %10, !llvm.loop !9

25:                                               ; preds = %63
  br i1 %11, label %66, label %74

26:                                               ; preds = %12, %63
  %27 = phi i64 [ 0, %12 ], [ %64, %63 ]
  %28 = getelementptr inbounds [50 x i32], [50 x i32]* %3, i64 0, i64 %27
  %29 = load i32, i32* %28, align 4, !tbaa !5
  %30 = add nsw i32 %29, -2
  %31 = sext i32 %30 to i64
  %32 = getelementptr inbounds [50 x [20 x i8]], [50 x [20 x i8]]* %2, i64 0, i64 %27, i64 %31
  %33 = load i8, i8* %32, align 1, !tbaa !11
  switch i8 %33, label %46 [
    i8 101, label %34
    i8 108, label %40
  ]

34:                                               ; preds = %26
  %35 = add nsw i32 %29, -1
  %36 = sext i32 %35 to i64
  %37 = getelementptr inbounds [50 x [20 x i8]], [50 x [20 x i8]]* %2, i64 0, i64 %27, i64 %36
  %38 = load i8, i8* %37, align 1, !tbaa !11
  %39 = icmp eq i8 %38, 114
  br i1 %39, label %61, label %46

40:                                               ; preds = %26
  %41 = add nsw i32 %29, -1
  %42 = sext i32 %41 to i64
  %43 = getelementptr inbounds [50 x [20 x i8]], [50 x [20 x i8]]* %2, i64 0, i64 %27, i64 %42
  %44 = load i8, i8* %43, align 1, !tbaa !11
  %45 = icmp eq i8 %44, 121
  br i1 %45, label %61, label %46

46:                                               ; preds = %26, %34, %40
  %47 = add nsw i32 %29, -3
  %48 = sext i32 %47 to i64
  %49 = getelementptr inbounds [50 x [20 x i8]], [50 x [20 x i8]]* %2, i64 0, i64 %27, i64 %48
  %50 = load i8, i8* %49, align 1, !tbaa !11
  %51 = icmp eq i8 %50, 105
  %52 = icmp eq i8 %33, 110
  %53 = select i1 %51, i1 %52, i1 false
  br i1 %53, label %54, label %63

54:                                               ; preds = %46
  %55 = add nsw i32 %29, -1
  %56 = sext i32 %55 to i64
  %57 = getelementptr inbounds [50 x [20 x i8]], [50 x [20 x i8]]* %2, i64 0, i64 %27, i64 %56
  %58 = load i8, i8* %57, align 1, !tbaa !11
  %59 = icmp eq i8 %58, 103
  br i1 %59, label %60, label %63

60:                                               ; preds = %54
  store i8 0, i8* %49, align 1, !tbaa !11
  br label %61

61:                                               ; preds = %40, %34, %60
  %62 = phi i8* [ %57, %60 ], [ %37, %34 ], [ %43, %40 ]
  store i8 0, i8* %32, align 1, !tbaa !11
  store i8 0, i8* %62, align 1, !tbaa !11
  br label %63

63:                                               ; preds = %61, %46, %54
  %64 = add nuw nsw i64 %27, 1
  %65 = icmp eq i64 %64, %13
  br i1 %65, label %25, label %26, !llvm.loop !12

66:                                               ; preds = %25, %66
  %67 = phi i64 [ %70, %66 ], [ 0, %25 ]
  %68 = getelementptr inbounds [50 x [20 x i8]], [50 x [20 x i8]]* %2, i64 0, i64 %67, i64 0
  %69 = call i32 @puts(i8* nonnull %68)
  %70 = add nuw nsw i64 %67, 1
  %71 = load i32, i32* %1, align 4, !tbaa !5
  %72 = sext i32 %71 to i64
  %73 = icmp slt i64 %70, %72
  br i1 %73, label %66, label %74, !llvm.loop !13

74:                                               ; preds = %66, %10, %0, %25
  call void @llvm.lifetime.end.p0i8(i64 200, i8* nonnull %7) #5
  call void @llvm.lifetime.end.p0i8(i64 1000, i8* nonnull %6) #5
  call void @llvm.lifetime.end.p0i8(i64 4, i8* nonnull %4) #5
  ret i32 0
}

; Function Attrs: argmemonly mustprogress nofree nosync nounwind willreturn
declare void @llvm.lifetime.start.p0i8(i64 immarg, i8* nocapture) #1

; Function Attrs: nofree nounwind
declare noundef i32 @__isoc99_scanf(i8* nocapture noundef readonly, ...) local_unnamed_addr #2

; Function Attrs: argmemonly mustprogress nofree nounwind willreturn writeonly
declare void @llvm.memset.p0i8.i64(i8* nocapture writeonly, i8, i64, i1 immarg) #3

; Function Attrs: argmemonly mustprogress nofree nounwind readonly willreturn
declare i64 @strlen(i8* nocapture) local_unnamed_addr #4

; Function Attrs: nofree nounwind
declare noundef i32 @puts(i8* nocapture noundef readonly) local_unnamed_addr #2

; Function Attrs: argmemonly mustprogress nofree nosync nounwind willreturn
declare void @llvm.lifetime.end.p0i8(i64 immarg, i8* nocapture) #1


!llvm.module.flags = !{!0, !1, !2, !3}
!llvm.ident = !{!4}

!0 = !{i32 1, !"wchar_size", i32 4}
!1 = !{i32 7, !"PIC Level", i32 2}
!2 = !{i32 7, !"PIE Level", i32 2}
!3 = !{i32 7, !"uwtable", i32 1}
!4 = !{!"clang version 13.0.0"}
!5 = !{!6, !6, i64 0}
!6 = !{!"int", !7, i64 0}
!7 = !{!"omnipotent char", !8, i64 0}
!8 = !{!"Simple C/C++ TBAA"}
!9 = distinct !{!9, !10}
!10 = !{!"llvm.loop.mustprogress"}
!11 = !{!7, !7, i64 0}
!12 = distinct !{!12, !10}
!13 = distinct !{!13, !10}
